(dp1
S'i2w'
p2
(lp3
VROOT
p4
aVpunct
p5
aVappos
p6
aVcase
p7
aVcompound
p8
aVnmod
p9
aVnsubj
p10
aVccomp
p11
aVamod
p12
aVdobj
p13
aVdep
p14
aVadvmod
p15
aVnummod
p16
aVmark
p17
aVacl
p18
aVnmod:tmod
p19
aVnsubjpass
p20
aVauxpass
p21
aVdet
p22
aVnmod:poss
p23
aVcc
p24
aVconj
p25
aVacl:relcl
p26
aVnmod:npmod
p27
aVcompound:prt
p28
aVadvcl
p29
aVxcomp
p30
aVcop
p31
aVaux
p32
aVneg
p33
aVparataxis
p34
aViobj
p35
aVmwe
p36
aVcsubj
p37
aVdet:predet
p38
aVcsubjpass
p39
aVexpl
p40
aVcc:preconj
p41
aVdiscourse
p42
aS''
asS'w2i'
p43
(dp44
S''
I39
sg24
I20
sg41
I37
sg19
I15
sg11
I7
sg40
I36
sg20
I16
sg37
I33
sg25
I21
sg12
I8
sg42
I38
sg33
I29
sg39
I35
sg17
I13
sg21
I17
sg36
I32
sg29
I25
sg32
I28
sg4
I0
sg34
I30
sg30
I26
sg10
I6
sg27
I23
sg16
I12
sg15
I11
sg5
I1
sg8
I4
sg28
I24
sg23
I19
sg7
I3
sg31
I27
sg14
I10
sg6
I2
sg22
I18
sg9
I5
sg13
I9
sg26
I22
sg35
I31
sg38
I34
sg18
I14
ss.