(dp1
S'i2w'
p2
(lp3
VNP
p4
aVNNP
p5
aV,
aVPP
p6
aVIN
p7
aVNN
p8
aVNNS
p9
aV.
aVS
aVVP
p10
aVVBZ
p11
aVSBAR
p12
aVVBP
p13
aVJJ
p14
aVQP
p15
aVRB
p16
aVCD
p17
aVTO
p18
aVVB
p19
aVNP-TMP
p20
aV:
aVVBN
p21
aVDT
p22
aVPOS
p23
aVCC
p24
aVNX
p25
aVWHNP
p26
aVWP
p27
aVVBD
p28
aVNNPS
p29
aVADVP
p30
aVVBG
p31
aVJJS
p32
aVPRT
p33
aVRP
p34
aVWHADVP
p35
aVWRB
p36
aVPRP
p37
aVPRP$
p38
aVPRN
p39
aVJJR
p40
aV''
p41
aVADJP
p42
aVFRAG
p43
aVX
aVMD
p44
aVRBR
p45
aV-LRB-
p46
aV-RRB-
p47
aVSINV
p48
aVWDT
p49
aVSQ
p50
aVFW
p51
aVLS
p52
aVRRC
p53
aV$
aVUCP
p54
aV``
p55
aVPDT
p56
aVSBARQ
p57
aVINTJ
p58
aVRBS
p59
aVSYM
p60
aVCONJP
p61
aVWP$
p62
aVEX
p63
aVWHPP
p64
aVNAC
p65
aVWHADJP
p66
aVUH
p67
aVLST
p68
aV#
asS'w2i'
p69
(dp70
g65
I67
sg38
I38
sg31
I31
sg12
I11
sg28
I28
sg48
I49
sg42
I42
sg35
I35
sg55
I57
sg21
I21
sg23
I23
sg41
I41
sg62
I64
sg13
I12
sg49
I50
sg66
I68
sg14
I13
sg27
I27
sg11
I10
sg22
I22
sg51
I52
sg6
I3
sg34
I34
sV$
I55
sg8
I5
sg33
I33
sV#
I71
sg39
I39
sg53
I54
sV,
I2
sV.
I7
sg25
I25
sg18
I17
sg68
I70
sg37
I37
sg16
I15
sg4
I0
sg46
I47
sV:
I20
sg9
I6
sg64
I66
sg5
I1
sg43
I43
sg19
I18
sg36
I36
sg44
I45
sg24
I24
sg52
I53
sg56
I58
sg59
I61
sg45
I46
sg17
I16
sg10
I9
sVS
I8
sg63
I65
sg7
I4
sg20
I19
sVX
I44
sg58
I60
sg30
I30
sg15
I14
sg29
I29
sg47
I48
sg50
I51
sg54
I56
sg32
I32
sg40
I40
sg60
I62
sg26
I26
sg57
I59
sg67
I69
sg61
I63
ss.